target datalayout = "e-m:e-p270:32:32-p271:32:32-p272:64:64-i64:64-i128:128-f80:128-n8:16:32:64-S128"
target triple = "x86_64-pc-linux-gnu"

%class.ref = type { ptr }
%class.ref_vector = type { %class.ref_vector_core }
%class.ref_vector_core = type { %class.ref_manager_wrapper, %class.ptr_vector }
%class.ref_manager_wrapper = type { ptr }
%class.ptr_vector = type { %class.vector }
%class.vector = type { ptr }
%class.ptr_vector.0 = type { %class.vector.1 }
%class.vector.1 = type { ptr }
%class.ptr_vector.2 = type { %class.vector.3 }
%class.vector.3 = type { ptr }
%class.obj_ref = type { ptr, ptr }
%"class.spacer::pred_transformer" = type { ptr, ptr, ptr, %class.obj_ref.5, %class.ref_vector.6, %class.ptr_vector.11, %"class.spacer::pred_transformer::pt_rules", %class.ptr_vector.18, %class.scoped_ptr.20, %class.ref.21, %"class.spacer::pred_transformer::pob_manager", %"class.spacer::pred_transformer::frames", %class.ref_vector_core.30, i32, %class.ref_vector.34, %class.obj_ref, %class.obj_ref, %class.obj_ref.39, %class.obj_ref.39, i8, %class.ptr_vector.9, %"struct.spacer::pred_transformer::stats", %class.stopwatch, %class.stopwatch, %class.stopwatch, %class.stopwatch, i8, [7 x i8], %"class.spacer::pred_transformer::cluster_db" }
%class.obj_ref.5 = type { ptr, ptr }
%class.ref_vector.6 = type { %class.ref_vector_core.7 }
%class.ref_vector_core.7 = type { %class.ref_manager_wrapper.8, %class.ptr_vector.9 }
%class.ref_manager_wrapper.8 = type { ptr }
%class.ptr_vector.11 = type { %class.vector.12 }
%class.vector.12 = type { ptr }
%"class.spacer::pred_transformer::pt_rules" = type { %class.obj_map, %class.obj_map.13 }
%class.obj_map = type { %class.core_hashtable }
%class.core_hashtable = type <{ ptr, i32, i32, i32, [4 x i8] }>
%class.obj_map.13 = type { %class.core_hashtable.14 }
%class.core_hashtable.14 = type <{ ptr, i32, i32, i32, [4 x i8] }>
%class.ptr_vector.18 = type { %class.vector.19 }
%class.vector.19 = type { ptr }
%class.scoped_ptr.20 = type { ptr }
%class.ref.21 = type { ptr }
%"class.spacer::pred_transformer::pob_manager" = type { ptr, %class.obj_map.22, %class.ref_vector_core.27 }
%class.obj_map.22 = type { %class.core_hashtable.23 }
%class.core_hashtable.23 = type <{ ptr, i32, i32, i32, [4 x i8] }>
%class.ref_vector_core.27 = type { %class.ptr_vector.0 }
%"class.spacer::pred_transformer::frames" = type <{ ptr, %class.ref_vector_core.28, %class.ref_vector_core.28, %class.ref_vector_core.28, i32, i8, [3 x i8] }>
%class.ref_vector_core.28 = type { %class.ptr_vector.2 }
%class.ref_vector_core.30 = type { %class.ptr_vector.32 }
%class.ptr_vector.32 = type { %class.vector.33 }
%class.vector.33 = type { ptr }
%class.ref_vector.34 = type { %class.ref_vector_core.35 }
%class.ref_vector_core.35 = type { %class.ref_manager_wrapper.36, %class.ptr_vector.37 }
%class.ref_manager_wrapper.36 = type { ptr }
%class.ptr_vector.37 = type { %class.vector.38 }
%class.vector.38 = type { ptr }
%class.obj_ref.39 = type { ptr, ptr }
%class.ptr_vector.9 = type { %class.vector.10 }
%class.vector.10 = type { ptr }
%"struct.spacer::pred_transformer::stats" = type { i32, i32, i32, i32, i32, i32 }
%class.stopwatch = type <{ %"class.std::chrono::time_point", %"class.std::chrono::duration", i8, [7 x i8] }>
%"class.std::chrono::time_point" = type { %"class.std::chrono::duration" }
%"class.std::chrono::duration" = type { i64 }
%"class.spacer::pred_transformer::cluster_db" = type <{ %class.ref_vector_core.40, i32, [4 x i8] }>
%class.ref_vector_core.40 = type { %class.ptr_vector.42 }
%class.ptr_vector.42 = type { %class.vector.43 }
%class.vector.43 = type { ptr }
%class.ref.122 = type { ptr }
%"class.spacer::lemma" = type <{ i32, [4 x i8], ptr, %class.obj_ref, %class.ref_vector.34, %class.ref_vector, %class.ref_vector, %class.ref, %class.ref.122, i32, i32, i32, i8, [3 x i8] }>
%class.ref.225 = type { ptr }

@_ZN6spacer5lemmaC1ER11ast_managerP4exprj = hidden unnamed_addr alias void (ptr, ptr, ptr, i32), ptr @_ZN6spacer5lemmaC2ER11ast_managerP4exprj

; Function Attrs: mustprogress nounwind uwtable
define linkonce_odr hidden void @_ZN6spacer5lemma7inc_refEv(ptr noundef nonnull align 8 dereferenceable(109) %0) #5 comdat align 2 {
  %2 = alloca ptr, align 8
  store ptr %0, ptr %2, align 8, !tbaa !333
  %3 = load ptr, ptr %2, align 8
  %4 = getelementptr inbounds nuw %"class.spacer::lemma", ptr %3, i32 0, i32 0
  %5 = load i32, ptr %4, align 8, !tbaa !335
  %6 = add i32 %5, 1
  store i32 %6, ptr %4, align 8, !tbaa !335
  ret void
}

; Function Attrs: mustprogress nounwind uwtable
define linkonce_odr hidden void @_ZN3refIN6spacer5lemmaEE7inc_refEv(ptr noundef nonnull align 8 dereferenceable(8) %0) #5 comdat align 2 {
  %2 = alloca ptr, align 8
  store ptr %0, ptr %2, align 8, !tbaa !555
  %3 = load ptr, ptr %2, align 8
  %4 = getelementptr inbounds nuw %class.ref.225, ptr %3, i32 0, i32 0
  %5 = load ptr, ptr %4, align 8, !tbaa !557
  %6 = icmp ne ptr %5, null
  br i1 %6, label %7, label %10

7:                                                ; preds = %1
  %8 = getelementptr inbounds nuw %class.ref.225, ptr %3, i32 0, i32 0
  %9 = load ptr, ptr %8, align 8, !tbaa !557
  call void @_ZN6spacer5lemma7inc_refEv(ptr noundef nonnull align 8 dereferenceable(109) %9)
  br label %10

10:                                               ; preds = %7, %1
  ret void
}

; Function Attrs: mustprogress nounwind uwtable
define linkonce_odr hidden noundef ptr @_ZNK3refIN6spacer5lemmaEE3getEv(ptr noundef nonnull align 8 dereferenceable(8) %0) #5 comdat align 2 {
  %2 = alloca ptr, align 8
  store ptr %0, ptr %2, align 8, !tbaa !555
  %3 = load ptr, ptr %2, align 8
  %4 = getelementptr inbounds nuw %class.ref.225, ptr %3, i32 0, i32 0
  %5 = load ptr, ptr %4, align 8, !tbaa !557
  ret ptr %5
}

; Function Attrs: mustprogress nounwind uwtable
define linkonce_odr hidden void @_ZN6spacer5lemma14set_backgroundEb(ptr noundef nonnull align 8 dereferenceable(109) %0, i1 noundef zeroext %1) #5 comdat align 2 {
  %3 = alloca ptr, align 8
  %4 = alloca i8, align 1
  store ptr %0, ptr %3, align 8, !tbaa !333
  %5 = zext i1 %1 to i8
  store i8 %5, ptr %4, align 1, !tbaa !12
  %6 = load ptr, ptr %3, align 8
  %7 = load i8, ptr %4, align 1, !tbaa !12, !range !40, !noundef !41
  %8 = trunc i8 %7 to i1
  %9 = zext i1 %8 to i32
  %10 = getelementptr inbounds nuw %"class.spacer::lemma", ptr %6, i32 0, i32 12
  %11 = trunc i32 %9 to i8
  %12 = load i8, ptr %10, align 4
  %13 = and i8 %11, 1
  %14 = shl i8 %13, 2
  %15 = and i8 %12, -5
  %16 = or i8 %15, %14
  store i8 %16, ptr %10, align 4
  ret void
}

; Function Attrs: mustprogress nounwind uwtable
define linkonce_odr hidden noundef ptr @_ZNK3refIN6spacer5lemmaEEptEv(ptr noundef nonnull align 8 dereferenceable(8) %0) #5 comdat align 2 {
  %2 = alloca ptr, align 8
  store ptr %0, ptr %2, align 8, !tbaa !555
  %3 = load ptr, ptr %2, align 8
  %4 = getelementptr inbounds nuw %class.ref.225, ptr %3, i32 0, i32 0
  %5 = load ptr, ptr %4, align 8, !tbaa !557
  ret ptr %5
}

; Function Attrs: mustprogress uwtable
define linkonce_odr hidden void @_ZN3refIN6spacer5lemmaEEC2EPS1_(ptr noundef nonnull align 8 dereferenceable(8) %0, ptr noundef %1) unnamed_addr #4 comdat align 2 {
  %3 = alloca ptr, align 8
  %4 = alloca ptr, align 8
  store ptr %0, ptr %3, align 8, !tbaa !555
  store ptr %1, ptr %4, align 8, !tbaa !333
  %5 = load ptr, ptr %3, align 8
  %6 = getelementptr inbounds nuw %class.ref.225, ptr %5, i32 0, i32 0
  %7 = load ptr, ptr %4, align 8, !tbaa !333
  store ptr %7, ptr %6, align 8, !tbaa !557
  call void @_ZN3refIN6spacer5lemmaEE7inc_refEv(ptr noundef nonnull align 8 dereferenceable(8) %5)
  ret void
}

; Function Attrs: mustprogress uwtable
define hidden noundef zeroext i1 @_ZN6spacer16pred_transformer9add_lemmaEP4exprjb(ptr noundef nonnull align 8 dereferenceable(472) %0, ptr noundef %1, i32 noundef %2, i1 noundef zeroext %3) #4 align 2 personality ptr @__gxx_personality_v0 {
  %5 = alloca ptr, align 8
  %6 = alloca ptr, align 8
  %7 = alloca i32, align 4
  %8 = alloca i8, align 1
  %9 = alloca %class.ref.225, align 8
  %10 = alloca ptr, align 8
  %11 = alloca i32, align 4
  store ptr %0, ptr %5, align 8, !tbaa !8
  store ptr %1, ptr %6, align 8, !tbaa !127
  store i32 %2, ptr %7, align 4, !tbaa !10
  %12 = zext i1 %3 to i8
  store i8 %12, ptr %8, align 1, !tbaa !12
  %13 = load ptr, ptr %5, align 8
  call void @llvm.lifetime.start.p0(i64 8, ptr %9) #3
  %14 = call noalias noundef ptr @_ZN6memory8allocateEm(i64 noundef 112)
  %15 = getelementptr inbounds nuw %"class.spacer::pred_transformer", ptr %13, i32 0, i32 1
  %16 = load ptr, ptr %15, align 8, !tbaa !45
  %17 = load ptr, ptr %6, align 8, !tbaa !127
  %18 = load i32, ptr %7, align 4, !tbaa !10
  call void @_ZN6spacer5lemmaC1ER11ast_managerP4exprj(ptr noundef nonnull align 8 dereferenceable(109) %14, ptr noundef nonnull align 8 dereferenceable(976) %16, ptr noundef %17, i32 noundef %18)
  call void @_ZN3refIN6spacer5lemmaEEC2EPS1_(ptr noundef nonnull align 8 dereferenceable(8) %9, ptr noundef %14)
  %19 = invoke noundef ptr @_ZNK3refIN6spacer5lemmaEEptEv(ptr noundef nonnull align 8 dereferenceable(8) %9)
          to label %20 unwind label %29

20:                                               ; preds = %4
  %21 = load i8, ptr %8, align 1, !tbaa !12, !range !40, !noundef !41
  %22 = trunc i8 %21 to i1
  invoke void @_ZN6spacer5lemma14set_backgroundEb(ptr noundef nonnull align 8 dereferenceable(109) %19, i1 noundef zeroext %22)
          to label %23 unwind label %29

23:                                               ; preds = %20
  %24 = getelementptr inbounds nuw %"class.spacer::pred_transformer", ptr %13, i32 0, i32 11
  %25 = invoke noundef ptr @_ZNK3refIN6spacer5lemmaEE3getEv(ptr noundef nonnull align 8 dereferenceable(8) %9)
          to label %26 unwind label %29

26:                                               ; preds = %23
  %27 = invoke noundef zeroext i1 @_ZN6spacer16pred_transformer6frames9add_lemmaEPNS_5lemmaE(ptr noundef nonnull align 8 dereferenceable(38) %24, ptr noundef %25)
          to label %28 unwind label %29

28:                                               ; preds = %26
  call void @_ZN3refIN6spacer5lemmaEED2Ev(ptr noundef nonnull align 8 dereferenceable(8) %9) #3
  call void @llvm.lifetime.end.p0(i64 8, ptr %9) #3
  ret i1 %27

29:                                               ; preds = %26, %23, %20, %4
  %30 = landingpad { ptr, i32 }
          cleanup
  %31 = extractvalue { ptr, i32 } %30, 0
  store ptr %31, ptr %10, align 8
  %32 = extractvalue { ptr, i32 } %30, 1
  store i32 %32, ptr %11, align 4
  call void @_ZN3refIN6spacer5lemmaEED2Ev(ptr noundef nonnull align 8 dereferenceable(8) %9) #3
  call void @llvm.lifetime.end.p0(i64 8, ptr %9) #3
  br label %33

33:                                               ; preds = %29
  %34 = load ptr, ptr %10, align 8
  %35 = load i32, ptr %11, align 4
  %36 = insertvalue { ptr, i32 } poison, ptr %34, 0
  %37 = insertvalue { ptr, i32 } %36, i32 %35, 1
  resume { ptr, i32 } %37
}