; Function Attrs: mustprogress uwtable
define hidden noundef zeroext i1 @_ZN6spacer16pred_transformer9add_lemmaEP4exprjb(ptr noundef nonnull align 8 dereferenceable(472) %0, ptr noundef %1, i32 noundef %2, i1 noundef zeroext %3) local_unnamed_addr #3 align 2 personality ptr @__gxx_personality_v0 {
_ZN3refIN6spacer5lemmaEEC2EPS1_.exit:
  %4 = alloca %class.ref.225, align 8
  call void @llvm.lifetime.start.p0(i64 8, ptr nonnull %4) #28
  %5 = tail call noalias noundef ptr @_ZN6memory8allocateEm(i64 noundef 112)
  %6 = getelementptr inbounds nuw i8, ptr %0, i64 8
  %7 = load ptr, ptr %6, align 8, !tbaa !33
  tail call void @_ZN6spacer5lemmaC2ER11ast_managerP4exprj(ptr noundef nonnull align 8 dereferenceable(109) %5, ptr noundef nonnull align 8 dereferenceable(976) %7, ptr noundef %1, i32 noundef %2)
  store ptr %5, ptr %4, align 8, !tbaa !578
  %8 = load i32, ptr %5, align 8, !tbaa !336
  %9 = add i32 %8, 1
  store i32 %9, ptr %5, align 8, !tbaa !336
  %10 = getelementptr inbounds nuw i8, ptr %5, i64 108
  %11 = load i8, ptr %10, align 4
  %12 = select i1 %3, i8 4, i8 0
  %13 = and i8 %11, -5
  %14 = or disjoint i8 %13, %12
  store i8 %14, ptr %10, align 4
  %15 = getelementptr inbounds nuw i8, ptr %0, i64 176
  %16 = invoke noundef zeroext i1 @_ZN6spacer16pred_transformer6frames9add_lemmaEPNS_5lemmaE(ptr noundef nonnull align 8 dereferenceable(38) %15, ptr noundef nonnull %5)
          to label %17 unwind label %25

17:                                               ; preds = %_ZN3refIN6spacer5lemmaEEC2EPS1_.exit
  %18 = load i32, ptr %5, align 8, !tbaa !336
  %19 = add i32 %18, -1
  store i32 %19, ptr %5, align 8, !tbaa !336
  %20 = icmp eq i32 %19, 0
  br i1 %20, label %21, label %_ZN3refIN6spacer5lemmaEED2Ev.exit

21:                                               ; preds = %17
  tail call void @_ZN6spacer5lemmaD2Ev(ptr noundef nonnull align 8 dereferenceable(109) %5) #28
  invoke void @_ZN6memory10deallocateEPv(ptr noundef nonnull align 8 dereferenceable(109) %5)
          to label %_ZN3refIN6spacer5lemmaEED2Ev.exit unwind label %22

22:                                               ; preds = %21
  %23 = landingpad { ptr, i32 }
          catch ptr null
  %24 = extractvalue { ptr, i32 } %23, 0
  tail call void @__clang_call_terminate(ptr %24) #29
  unreachable

_ZN3refIN6spacer5lemmaEED2Ev.exit:                ; preds = %17, %21
  call void @llvm.lifetime.end.p0(i64 8, ptr nonnull %4) #28
  ret i1 %16

25:                                               ; preds = %_ZN3refIN6spacer5lemmaEEC2EPS1_.exit
  %26 = landingpad { ptr, i32 }
          cleanup
  call void @_ZN3refIN6spacer5lemmaEED2Ev(ptr noundef nonnull align 8 dereferenceable(8) %4) #28
  call void @llvm.lifetime.end.p0(i64 8, ptr nonnull %4) #28
  resume { ptr, i32 } %26
}